; Function Attrs: mustprogress nofree norecurse nosync nounwind memory(readwrite, inaccessiblemem: none) uwtable
define hidden void @_ZN3sat10simplifier15cleanup_watchesEv(ptr nocapture noundef nonnull readonly align 8 dereferenceable(288) %this) local_unnamed_addr #5 align 2 {
entry:
  %0 = load ptr, ptr %this, align 8
  %m_watches = getelementptr inbounds i8, ptr %0, i64 3432
  %1 = load ptr, ptr %m_watches, align 8
  %cmp.i.i = icmp eq ptr %1, null
  br i1 %cmp.i.i, label %for.end12, label %_ZN6vectorIS_IN3sat7watchedELb1EjELb1EjE3endEv.exit

_ZN6vectorIS_IN3sat7watchedELb1EjELb1EjE3endEv.exit: ; preds = %entry
  %arrayidx.i.i = getelementptr inbounds i8, ptr %1, i64 -4
  %2 = load i32, ptr %arrayidx.i.i, align 4
  %3 = zext i32 %2 to i64
  %add.ptr.i = getelementptr inbounds %class.vector.51, ptr %1, i64 %3
  %cmp.not20 = icmp eq i32 %2, 0
  br i1 %cmp.not20, label %for.end12, label %for.body

for.body:                                         ; preds = %_ZN6vectorIS_IN3sat7watchedELb1EjELb1EjE3endEv.exit, %_ZN6vectorIN3sat7watchedELb1EjE7set_endEPS1_.exit
  %__begin1.021 = phi ptr [ %incdec.ptr11, %_ZN6vectorIN3sat7watchedELb1EjE7set_endEPS1_.exit ], [ %1, %_ZN6vectorIS_IN3sat7watchedELb1EjELb1EjE3endEv.exit ]
  %4 = load ptr, ptr %__begin1.021, align 8
  %cmp.i.i12 = icmp eq ptr %4, null
  br i1 %cmp.i.i12, label %_ZN6vectorIN3sat7watchedELb1EjE7set_endEPS1_.exit, label %_ZN6vectorIN3sat7watchedELb1EjE3endEv.exit

_ZN6vectorIN3sat7watchedELb1EjE3endEv.exit:       ; preds = %for.body
  %arrayidx.i.i14 = getelementptr inbounds i8, ptr %4, i64 -4
  %5 = load i32, ptr %arrayidx.i.i14, align 4
  %6 = zext i32 %5 to i64
  %add.ptr.i16 = getelementptr inbounds %"class.sat::watched", ptr %4, i64 %6
  %cmp6.not17 = icmp eq i32 %5, 0
  br i1 %cmp6.not17, label %_ZN6vectorIN3sat7watchedELb1EjE3endEv.exit.i, label %for.body7

for.body7:                                        ; preds = %_ZN6vectorIN3sat7watchedELb1EjE3endEv.exit, %for.inc
  %itprev.019 = phi ptr [ %itprev.1, %for.inc ], [ %4, %_ZN6vectorIN3sat7watchedELb1EjE3endEv.exit ]
  %it2.018 = phi ptr [ %incdec.ptr9, %for.inc ], [ %4, %_ZN6vectorIN3sat7watchedELb1EjE3endEv.exit ]
  %m_val2.i = getelementptr inbounds i8, ptr %it2.018, i64 8
  %7 = load i32, ptr %m_val2.i, align 8
  %and.i = and i32 %7, 3
  %cond = icmp eq i32 %and.i, 1
  br i1 %cond, label %for.inc, label %sw.default

sw.default:                                       ; preds = %for.body7
  tail call void @llvm.memcpy.p0.p0.i64(ptr noundef nonnull align 8 dereferenceable(12) %itprev.019, ptr noundef nonnull align 8 dereferenceable(12) %it2.018, i64 12, i1 false)
  %incdec.ptr = getelementptr inbounds i8, ptr %itprev.019, i64 16
  br label %for.inc

for.inc:                                          ; preds = %sw.default, %for.body7
  %itprev.1 = phi ptr [ %itprev.019, %for.body7 ], [ %incdec.ptr, %sw.default ]
  %incdec.ptr9 = getelementptr inbounds i8, ptr %it2.018, i64 16
  %cmp6.not = icmp eq ptr %incdec.ptr9, %add.ptr.i16
  br i1 %cmp6.not, label %for.end, label %for.body7, !llvm.loop !15

for.end:                                          ; preds = %for.inc
  %.pre = load ptr, ptr %__begin1.021, align 8
  %tobool.not.i = icmp eq ptr %.pre, null
  br i1 %tobool.not.i, label %_ZN6vectorIN3sat7watchedELb1EjE7set_endEPS1_.exit, label %_ZN6vectorIN3sat7watchedELb1EjE3endEv.exit.i

_ZN6vectorIN3sat7watchedELb1EjE3endEv.exit.i:     ; preds = %_ZN6vectorIN3sat7watchedELb1EjE3endEv.exit, %for.end
  %itprev.0.lcssa33 = phi ptr [ %itprev.1, %for.end ], [ %4, %_ZN6vectorIN3sat7watchedELb1EjE3endEv.exit ]
  %8 = phi ptr [ %.pre, %for.end ], [ %4, %_ZN6vectorIN3sat7watchedELb1EjE3endEv.exit ]
  %sub.ptr.lhs.cast.i = ptrtoint ptr %itprev.0.lcssa33 to i64
  %sub.ptr.rhs.cast.i = ptrtoint ptr %8 to i64
  %sub.ptr.sub.i = sub i64 %sub.ptr.lhs.cast.i, %sub.ptr.rhs.cast.i
  %sub.ptr.div.i = lshr exact i64 %sub.ptr.sub.i, 4
  %conv.i = trunc i64 %sub.ptr.div.i to i32
  %arrayidx.i = getelementptr inbounds i8, ptr %8, i64 -4
  store i32 %conv.i, ptr %arrayidx.i, align 4
  br label %_ZN6vectorIN3sat7watchedELb1EjE7set_endEPS1_.exit

_ZN6vectorIN3sat7watchedELb1EjE7set_endEPS1_.exit: ; preds = %for.body, %for.end, %_ZN6vectorIN3sat7watchedELb1EjE3endEv.exit.i
  %incdec.ptr11 = getelementptr inbounds i8, ptr %__begin1.021, i64 8
  %cmp.not = icmp eq ptr %incdec.ptr11, %add.ptr.i
  br i1 %cmp.not, label %for.end12, label %for.body

for.end12:                                        ; preds = %_ZN6vectorIN3sat7watchedELb1EjE7set_endEPS1_.exit, %entry, %_ZN6vectorIS_IN3sat7watchedELb1EjELb1EjE3endEv.exit
  ret void
}